target datalayout = "e-m:e-p270:32:32-p271:32:32-p272:64:64-i64:64-i128:128-f80:128-n8:16:32:64-S128"
target triple = "x86_64-pc-linux-gnu"

%"class.icu_77::StringLocalizationInfo" = type { %"class.icu_77::LocalizationInfo.base", ptr, ptr, i32, i32 }
%"class.icu_77::LocalizationInfo.base" = type <{ ptr, i32 }>

; Function Attrs: mustprogress uwtable
define noundef ptr @_ZNK6icu_7722StringLocalizationInfo13getLocaleNameEi(ptr noundef nonnull align 8 dereferenceable(40) %0, i32 noundef %1) unnamed_addr #2 align 2 {
  %3 = alloca ptr, align 8
  %4 = alloca ptr, align 8
  %5 = alloca i32, align 4
  store ptr %0, ptr %4, align 8, !tbaa !65
  store i32 %1, ptr %5, align 4, !tbaa !12
  %6 = load ptr, ptr %4, align 8
  %7 = load i32, ptr %5, align 4, !tbaa !12
  %8 = icmp sge i32 %7, 0
  br i1 %8, label %9, label %26

9:                                                ; preds = %2
  %10 = load i32, ptr %5, align 4, !tbaa !12
  %11 = load ptr, ptr %6, align 8, !tbaa !10
  %12 = getelementptr inbounds ptr, ptr %11, i64 5
  %13 = load ptr, ptr %12, align 8
  %14 = call noundef i32 %13(ptr noundef nonnull align 8 dereferenceable(40) %6)
  %15 = icmp slt i32 %10, %14
  br i1 %15, label %16, label %26

16:                                               ; preds = %9
  %17 = getelementptr inbounds nuw %"class.icu_77::StringLocalizationInfo", ptr %6, i32 0, i32 2
  %18 = load ptr, ptr %17, align 8, !tbaa !70
  %19 = load i32, ptr %5, align 4, !tbaa !12
  %20 = add nsw i32 %19, 1
  %21 = sext i32 %20 to i64
  %22 = getelementptr inbounds ptr, ptr %18, i64 %21
  %23 = load ptr, ptr %22, align 8, !tbaa !40
  %24 = getelementptr inbounds ptr, ptr %23, i64 0
  %25 = load ptr, ptr %24, align 8, !tbaa !16
  store ptr %25, ptr %3, align 8
  br label %27

26:                                               ; preds = %9, %2
  store ptr null, ptr %3, align 8
  br label %27

27:                                               ; preds = %26, %16
  %28 = load ptr, ptr %3, align 8
  ret ptr %28
}