; Function Attrs: mustprogress uwtable
define noundef ptr @_ZNK6icu_7722StringLocalizationInfo13getLocaleNameEi(ptr noundef nonnull align 8 dereferenceable(40) %0, i32 noundef %1) unnamed_addr #3 align 2 {
  %3 = icmp sgt i32 %1, -1
  br i1 %3, label %4, label %18

4:                                                ; preds = %2
  %5 = load ptr, ptr %0, align 8, !tbaa !3
  %6 = getelementptr inbounds nuw i8, ptr %5, i64 40
  %7 = load ptr, ptr %6, align 8
  %8 = tail call noundef i32 %7(ptr noundef nonnull align 8 dereferenceable(40) %0)
  %9 = icmp slt i32 %1, %8
  br i1 %9, label %10, label %18

10:                                               ; preds = %4
  %11 = getelementptr inbounds nuw i8, ptr %0, i64 24
  %12 = load ptr, ptr %11, align 8, !tbaa !47
  %13 = zext nneg i32 %1 to i64
  %14 = getelementptr inbounds nuw ptr, ptr %12, i64 %13
  %15 = getelementptr inbounds nuw i8, ptr %14, i64 8
  %16 = load ptr, ptr %15, align 8, !tbaa !60
  %17 = load ptr, ptr %16, align 8, !tbaa !63
  br label %18

18:                                               ; preds = %2, %4, %10
  %.0 = phi ptr [ %17, %10 ], [ null, %4 ], [ null, %2 ]
  ret ptr %.0
}